; Function Attrs: nounwind uwtable
define void @lv_fragment_delete(ptr noundef %0) local_unnamed_addr #0 {
  %.not = icmp eq ptr %0, null
  br i1 %.not, label %.preheader, label %2

.preheader:                                       ; preds = %1, %.preheader
  br label %.preheader

2:                                                ; preds = %1
  %3 = getelementptr inbounds nuw i8, ptr %0, i64 8
  %4 = load ptr, ptr %3, align 8, !tbaa !14
  %.not14 = icmp eq ptr %4, null
  br i1 %.not14, label %8, label %5

5:                                                ; preds = %2
  %6 = getelementptr inbounds nuw i8, ptr %4, i64 8
  %7 = load ptr, ptr %6, align 8, !tbaa !15
  tail call void @lv_fragment_manager_remove(ptr noundef %7, ptr noundef nonnull %0) #4
  br label %20

8:                                                ; preds = %2
  %9 = getelementptr inbounds nuw i8, ptr %0, i64 24
  %10 = load ptr, ptr %9, align 8, !tbaa !18
  %.not15 = icmp eq ptr %10, null
  br i1 %.not15, label %12, label %11

11:                                               ; preds = %8
  tail call void @lv_fragment_delete_obj(ptr noundef nonnull %0)
  br label %12

12:                                               ; preds = %11, %8
  %13 = load ptr, ptr %0, align 8, !tbaa !10
  %14 = getelementptr inbounds nuw i8, ptr %13, i64 8
  %15 = load ptr, ptr %14, align 8, !tbaa !19
  %.not16 = icmp eq ptr %15, null
  br i1 %.not16, label %17, label %16

16:                                               ; preds = %12
  tail call void %15(ptr noundef nonnull %0) #4
  br label %17

17:                                               ; preds = %16, %12
  %18 = getelementptr inbounds nuw i8, ptr %0, i64 16
  %19 = load ptr, ptr %18, align 8, !tbaa !12
  tail call void @lv_fragment_manager_delete(ptr noundef %19) #4
  tail call void @lv_free(ptr noundef nonnull %0) #4
  br label %20

20:                                               ; preds = %17, %5
  ret void
}